(lp0
S'ppt1_059'
p1
aS'ppt1_058'
p2
aS'ppt1_057'
p3
aS'ppt1_056'
p4
aS'ppt1_055'
p5
aS'ppt1_054'
p6
aS'ppt1_053'
p7
aS'ppt1_052'
p8
aS'ppt1_051'
p9
aS'ppt1_050'
p10
aS'ppt3_077'
p11
aS'ppt3_076'
p12
aS'ppt3_075'
p13
aS'ppt3_074'
p14
aS'ppt3_073'
p15
aS'ppt3_072'
p16
aS'ppt3_071'
p17
aS'ppt3_070'
p18
aS'ppt3_079'
p19
aS'ppt3_078'
p20
aS'ppt2_090'
p21
aS'ppt2_091'
p22
aS'ppt5_031'
p23
aS'ppt2_099'
p24
aS'ppt2_043'
p25
aS'ppt2_042'
p26
aS'ppt2_041'
p27
aS'ppt2_040'
p28
aS'ppt5_088'
p29
aS'ppt5_089'
p30
aS'ppt2_045'
p31
aS'ppt2_044'
p32
aS'ppt5_084'
p33
aS'ppt5_085'
p34
aS'ppt5_086'
p35
aS'ppt2_048'
p36
aS'ppt5_080'
p37
aS'ppt5_081'
p38
aS'ppt5_082'
p39
aS'ppt5_083'
p40
aS'ppt4_029'
p41
aS'ppt4_028'
p42
aS'ppt4_027'
p43
aS'ppt4_026'
p44
aS'ppt4_025'
p45
aS'ppt4_024'
p46
aS'ppt4_023'
p47
aS'ppt4_022'
p48
aS'ppt4_021'
p49
aS'ppt4_020'
p50
aS'ppt5_017'
p51
aS'ppt5_016'
p52
aS'ppt5_015'
p53
aS'ppt4_099'
p54
aS'ppt5_013'
p55
aS'ppt5_012'
p56
aS'ppt5_011'
p57
aS'ppt5_010'
p58
aS'ppt4_092'
p59
aS'ppt4_093'
p60
aS'ppt4_090'
p61
aS'ppt4_091'
p62
aS'ppt4_096'
p63
aS'ppt4_097'
p64
aS'ppt5_019'
p65
aS'ppt4_095'
p66
aS'ppt5_099'
p67
aS'ppt5_098'
p68
aS'ppt4_044'
p69
aS'ppt2_079'
p70
aS'ppt4_012'
p71
aS'ppt1_089'
p72
aS'ppt1_026'
p73
aS'ppt1_027'
p74
aS'ppt1_024'
p75
aS'ppt1_025'
p76
aS'ppt1_022'
p77
aS'ppt1_023'
p78
aS'ppt1_020'
p79
aS'ppt1_021'
p80
aS'ppt1_028'
p81
aS'ppt1_029'
p82
aS'ppt3_008'
p83
aS'ppt3_009'
p84
aS'ppt3_006'
p85
aS'ppt3_007'
p86
aS'ppt3_004'
p87
aS'ppt3_005'
p88
aS'ppt3_002'
p89
aS'ppt3_003'
p90
aS'ppt3_001'
p91
aS'ppt1_083'
p92
aS'ppt2_009'
p93
aS'ppt2_008'
p94
aS'ppt2_007'
p95
aS'ppt2_006'
p96
aS'ppt2_005'
p97
aS'ppt2_004'
p98
aS'ppt2_003'
p99
aS'ppt2_002'
p100
aS'ppt2_001'
p101
aS'ppt4_056'
p102
aS'ppt4_057'
p103
aS'ppt4_054'
p104
aS'ppt4_055'
p105
aS'ppt4_052'
p106
aS'ppt4_053'
p107
aS'ppt4_050'
p108
aS'ppt4_051'
p109
aS'ppt4_058'
p110
aS'ppt4_059'
p111
aS'ppt5_068'
p112
aS'ppt5_069'
p113
aS'ppt5_066'
p114
aS'ppt5_067'
p115
aS'ppt5_064'
p116
aS'ppt5_065'
p117
aS'ppt5_062'
p118
aS'ppt5_063'
p119
aS'ppt5_060'
p120
aS'ppt5_061'
p121
aS'ppt1_062'
p122
aS'ppt1_063'
p123
aS'ppt1_060'
p124
aS'ppt1_061'
p125
aS'ppt1_066'
p126
aS'ppt1_067'
p127
aS'ppt1_064'
p128
aS'ppt1_065'
p129
aS'ppt1_100'
p130
aS'ppt1_068'
p131
aS'ppt1_069'
p132
aS'ppt3_048'
p133
aS'ppt3_049'
p134
aS'ppt3_042'
p135
aS'ppt3_043'
p136
aS'ppt3_040'
p137
aS'ppt3_041'
p138
aS'ppt3_046'
p139
aS'ppt3_047'
p140
aS'ppt3_044'
p141
aS'ppt3_045'
p142
aS'ppt4_094'
p143
aS'ppt2_076'
p144
aS'ppt2_077'
p145
aS'ppt2_074'
p146
aS'ppt2_075'
p147
aS'ppt2_072'
p148
aS'ppt2_073'
p149
aS'ppt2_070'
p150
aS'ppt2_071'
p151
aS'ppt5_097'
p152
aS'ppt5_096'
p153
aS'ppt5_095'
p154
aS'ppt5_094'
p155
aS'ppt5_093'
p156
aS'ppt5_092'
p157
aS'ppt5_091'
p158
aS'ppt5_090'
p159
aS'ppt1_088'
p160
aS'ppt4_013'
p161
aS'ppt4_010'
p162
aS'ppt4_011'
p163
aS'ppt4_016'
p164
aS'ppt4_017'
p165
aS'ppt4_014'
p166
aS'ppt4_015'
p167
aS'ppt1_080'
p168
aS'ppt1_081'
p169
aS'ppt1_082'
p170
aS'ppt4_019'
p171
aS'ppt1_084'
p172
aS'ppt1_085'
p173
aS'ppt1_086'
p174
aS'ppt1_087'
p175
aS'ppt5_028'
p176
aS'ppt5_029'
p177
aS'ppt5_022'
p178
aS'ppt5_023'
p179
aS'ppt5_020'
p180
aS'ppt5_021'
p181
aS'ppt5_026'
p182
aS'ppt5_027'
p183
aS'ppt5_024'
p184
aS'ppt5_025'
p185
aS'ppt4_089'
p186
aS'ppt4_088'
p187
aS'ppt4_085'
p188
aS'ppt4_084'
p189
aS'ppt4_087'
p190
aS'ppt4_086'
p191
aS'ppt4_081'
p192
aS'ppt4_080'
p193
aS'ppt4_083'
p194
aS'ppt4_082'
p195
aS'ppt3_086'
p196
aS'ppt3_087'
p197
aS'ppt3_084'
p198
aS'ppt3_085'
p199
aS'ppt3_082'
p200
aS'ppt3_083'
p201
aS'ppt3_080'
p202
aS'ppt3_081'
p203
aS'ppt3_088'
p204
aS'ppt3_089'
p205
aS'ppt2_047'
p206
aS'ppt2_046'
p207
aS'ppt1_039'
p208
aS'ppt1_038'
p209
aS'ppt1_031'
p210
aS'ppt1_030'
p211
aS'ppt1_033'
p212
aS'ppt1_032'
p213
aS'ppt1_035'
p214
aS'ppt1_034'
p215
aS'ppt1_037'
p216
aS'ppt1_036'
p217
aS'ppt2_049'
p218
aS'ppt5_087'
p219
aS'ppt3_011'
p220
aS'ppt3_010'
p221
aS'ppt3_013'
p222
aS'ppt3_012'
p223
aS'ppt3_015'
p224
aS'ppt3_014'
p225
aS'ppt3_017'
p226
aS'ppt3_016'
p227
aS'ppt3_019'
p228
aS'ppt3_018'
p229
aS'ppt2_032'
p230
aS'ppt2_033'
p231
aS'ppt2_030'
p232
aS'ppt2_031'
p233
aS'ppt2_036'
p234
aS'ppt2_037'
p235
aS'ppt2_034'
p236
aS'ppt2_035'
p237
aS'ppt2_039'
p238
aS'ppt2_100'
p239
aS'ppt4_049'
p240
aS'ppt4_048'
p241
aS'ppt4_041'
p242
aS'ppt4_040'
p243
aS'ppt4_043'
p244
aS'ppt4_042'
p245
aS'ppt4_045'
p246
aS'ppt5_100'
p247
aS'ppt4_047'
p248
aS'ppt4_046'
p249
aS'ppt5_071'
p250
aS'ppt5_070'
p251
aS'ppt5_073'
p252
aS'ppt5_072'
p253
aS'ppt5_075'
p254
aS'ppt5_074'
p255
aS'ppt5_077'
p256
aS'ppt5_076'
p257
aS'ppt5_079'
p258
aS'ppt5_078'
p259
aS'ppt1_075'
p260
aS'ppt1_074'
p261
aS'ppt1_077'
p262
aS'ppt1_076'
p263
aS'ppt1_071'
p264
aS'ppt1_070'
p265
aS'ppt1_073'
p266
aS'ppt1_072'
p267
aS'ppt1_079'
p268
aS'ppt1_078'
p269
aS'ppt3_059'
p270
aS'ppt3_058'
p271
aS'ppt3_055'
p272
aS'ppt3_054'
p273
aS'ppt3_057'
p274
aS'ppt3_056'
p275
aS'ppt3_051'
p276
aS'ppt3_050'
p277
aS'ppt3_053'
p278
aS'ppt3_052'
p279
aS'ppt4_018'
p280
aS'ppt1_001'
p281
aS'ppt1_002'
p282
aS'ppt1_003'
p283
aS'ppt1_004'
p284
aS'ppt1_005'
p285
aS'ppt1_006'
p286
aS'ppt1_007'
p287
aS'ppt1_008'
p288
aS'ppt1_009'
p289
aS'ppt3_028'
p290
aS'ppt3_029'
p291
aS'ppt3_020'
p292
aS'ppt3_021'
p293
aS'ppt3_022'
p294
aS'ppt3_023'
p295
aS'ppt3_024'
p296
aS'ppt3_025'
p297
aS'ppt3_026'
p298
aS'ppt3_027'
p299
aS'ppt2_069'
p300
aS'ppt2_068'
p301
aS'ppt2_061'
p302
aS'ppt2_060'
p303
aS'ppt2_063'
p304
aS'ppt2_062'
p305
aS'ppt2_065'
p306
aS'ppt2_064'
p307
aS'ppt2_067'
p308
aS'ppt2_066'
p309
aS'ppt4_005'
p310
aS'ppt4_004'
p311
aS'ppt1_099'
p312
aS'ppt1_098'
p313
aS'ppt4_001'
p314
aS'ppt4_003'
p315
aS'ppt4_002'
p316
aS'ppt1_093'
p317
aS'ppt1_092'
p318
aS'ppt1_091'
p319
aS'ppt1_090'
p320
aS'ppt4_009'
p321
aS'ppt1_096'
p322
aS'ppt1_095'
p323
aS'ppt1_094'
p324
aS'ppt2_094'
p325
aS'ppt2_095'
p326
aS'ppt2_096'
p327
aS'ppt2_097'
p328
aS'ppt5_039'
p329
aS'ppt5_038'
p330
aS'ppt2_092'
p331
aS'ppt2_093'
p332
aS'ppt5_035'
p333
aS'ppt5_034'
p334
aS'ppt5_037'
p335
aS'ppt5_036'
p336
aS'ppt2_098'
p337
aS'ppt5_030'
p338
aS'ppt5_033'
p339
aS'ppt5_032'
p340
aS'ppt4_070'
p341
aS'ppt4_071'
p342
aS'ppt4_072'
p343
aS'ppt4_073'
p344
aS'ppt4_074'
p345
aS'ppt4_075'
p346
aS'ppt4_076'
p347
aS'ppt4_077'
p348
aS'ppt4_078'
p349
aS'ppt4_079'
p350
aS'ppt3_099'
p351
aS'ppt3_098'
p352
aS'ppt3_091'
p353
aS'ppt3_090'
p354
aS'ppt3_093'
p355
aS'ppt3_092'
p356
aS'ppt3_095'
p357
aS'ppt3_094'
p358
aS'ppt3_097'
p359
aS'ppt3_096'
p360
aS'ppt4_098'
p361
aS'ppt5_048'
p362
aS'ppt5_049'
p363
aS'ppt5_014'
p364
aS'ppt5_040'
p365
aS'ppt5_041'
p366
aS'ppt5_042'
p367
aS'ppt5_043'
p368
aS'ppt5_044'
p369
aS'ppt5_045'
p370
aS'ppt5_046'
p371
aS'ppt5_047'
p372
aS'ppt1_048'
p373
aS'ppt1_049'
p374
aS'ppt1_044'
p375
aS'ppt1_045'
p376
aS'ppt1_046'
p377
aS'ppt1_047'
p378
aS'ppt1_040'
p379
aS'ppt1_041'
p380
aS'ppt1_042'
p381
aS'ppt1_043'
p382
aS'ppt3_064'
p383
aS'ppt3_065'
p384
aS'ppt3_066'
p385
aS'ppt3_067'
p386
aS'ppt3_060'
p387
aS'ppt3_061'
p388
aS'ppt3_062'
p389
aS'ppt3_063'
p390
aS'ppt5_018'
p391
aS'ppt3_068'
p392
aS'ppt3_069'
p393
aS'ppt2_025'
p394
aS'ppt2_024'
p395
aS'ppt2_027'
p396
aS'ppt2_026'
p397
aS'ppt2_021'
p398
aS'ppt2_020'
p399
aS'ppt2_023'
p400
aS'ppt2_022'
p401
aS'ppt2_029'
p402
aS'ppt2_028'
p403
aS'ppt2_050'
p404
aS'ppt2_051'
p405
aS'ppt2_052'
p406
aS'ppt2_053'
p407
aS'ppt2_054'
p408
aS'ppt2_055'
p409
aS'ppt2_056'
p410
aS'ppt2_057'
p411
aS'ppt2_058'
p412
aS'ppt2_059'
p413
aS'ppt4_038'
p414
aS'ppt4_039'
p415
aS'ppt4_034'
p416
aS'ppt4_035'
p417
aS'ppt4_036'
p418
aS'ppt4_037'
p419
aS'ppt4_030'
p420
aS'ppt4_031'
p421
aS'ppt4_032'
p422
aS'ppt4_033'
p423
aS'ppt5_004'
p424
aS'ppt5_005'
p425
aS'ppt5_006'
p426
aS'ppt5_007'
p427
aS'ppt5_001'
p428
aS'ppt5_002'
p429
aS'ppt5_003'
p430
aS'ppt5_008'
p431
aS'ppt5_009'
p432
aS'ppt4_007'
p433
aS'ppt4_006'
p434
aS'ppt3_100'
p435
aS'ppt1_097'
p436
aS'ppt4_008'
p437
aS'ppt1_013'
p438
aS'ppt1_012'
p439
aS'ppt1_011'
p440
aS'ppt1_010'
p441
aS'ppt1_017'
p442
aS'ppt1_016'
p443
aS'ppt1_015'
p444
aS'ppt1_014'
p445
aS'ppt1_019'
p446
aS'ppt1_018'
p447
aS'ppt3_039'
p448
aS'ppt3_038'
p449
aS'ppt3_033'
p450
aS'ppt3_032'
p451
aS'ppt3_031'
p452
aS'ppt3_030'
p453
aS'ppt3_037'
p454
aS'ppt3_036'
p455
aS'ppt3_035'
p456
aS'ppt3_034'
p457
aS'ppt2_018'
p458
aS'ppt2_019'
p459
aS'ppt2_014'
p460
aS'ppt2_015'
p461
aS'ppt2_016'
p462
aS'ppt2_017'
p463
aS'ppt2_010'
p464
aS'ppt2_011'
p465
aS'ppt2_012'
p466
aS'ppt2_013'
p467
aS'ppt2_087'
p468
aS'ppt2_086'
p469
aS'ppt2_085'
p470
aS'ppt2_084'
p471
aS'ppt2_083'
p472
aS'ppt2_082'
p473
aS'ppt2_081'
p474
aS'ppt2_080'
p475
aS'ppt4_100'
p476
aS'ppt2_089'
p477
aS'ppt2_088'
p478
aS'ppt4_063'
p479
aS'ppt4_062'
p480
aS'ppt4_061'
p481
aS'ppt4_060'
p482
aS'ppt4_067'
p483
aS'ppt4_066'
p484
aS'ppt4_065'
p485
aS'ppt4_064'
p486
aS'ppt4_069'
p487
aS'ppt4_068'
p488
aS'ppt5_059'
p489
aS'ppt5_058'
p490
aS'ppt5_053'
p491
aS'ppt5_052'
p492
aS'ppt5_051'
p493
aS'ppt5_050'
p494
aS'ppt5_057'
p495
aS'ppt5_056'
p496
aS'ppt5_055'
p497
aS'ppt5_054'
p498
a.